target datalayout = "e-m:e-p270:32:32-p271:32:32-p272:64:64-i64:64-i128:128-f80:128-n8:16:32:64-S128"
target triple = "x86_64-pc-linux-gnu"

%"class.sat::literal" = type { i32 }
%"class.nlsat::vos_var_info_collector" = type { ptr }
%"struct.nlsat::vos_var_info_collector::imp" = type { ptr, ptr, i32, i32, %class.svector, %class.svector, %class.svector, %class.svector, %class.svector, %class.svector, %class.svector, %class.svector, %class.svector.0 }
%class.svector = type { %class.vector }
%class.vector = type { ptr }
%class.svector.0 = type { %class.vector.1 }
%class.vector.1 = type { ptr }
%class.vector.4 = type { ptr }
%"class.nlsat::clause" = type { i32, i32, i64, i32, ptr, [0 x %"class.sat::literal"] }
%class.vector.2 = type { ptr }
%"class.nlsat::atom" = type { i32, i32, i32, i32 }
%"class.nlsat::ineq_atom" = type { %"class.nlsat::atom", i32, [0 x ptr] }
%"class.nlsat::root_atom" = type { %"class.nlsat::atom", i32, i32, ptr }

; Function Attrs: mustprogress nounwind uwtable
define linkonce_odr hidden noundef ptr @_ZNK5nlsat9root_atom1pEv(ptr noundef nonnull align 8 dereferenceable(32) %0) #4 comdat align 2 {
  %2 = alloca ptr, align 8
  store ptr %0, ptr %2, align 8, !tbaa !152
  %3 = load ptr, ptr %2, align 8
  %4 = getelementptr inbounds nuw %"class.nlsat::root_atom", ptr %3, i32 0, i32 3
  %5 = load ptr, ptr %4, align 8, !tbaa !154
  ret ptr %5
}

; Function Attrs: inlinehint mustprogress nounwind uwtable
define linkonce_odr hidden noundef ptr @_ZN5nlsat12to_root_atomEPNS_4atomE(ptr noundef %0) #8 comdat {
  %2 = alloca ptr, align 8
  store ptr %0, ptr %2, align 8, !tbaa !131
  %3 = load ptr, ptr %2, align 8, !tbaa !131
  ret ptr %3
}

; Function Attrs: mustprogress nounwind uwtable
define linkonce_odr hidden noundef ptr @_ZNK5nlsat9ineq_atom1pEj(ptr noundef nonnull align 8 dereferenceable(24) %0, i32 noundef %1) #4 comdat align 2 {
  %3 = alloca ptr, align 8
  %4 = alloca i32, align 4
  store ptr %0, ptr %3, align 8, !tbaa !142
  store i32 %1, ptr %4, align 4, !tbaa !8
  %5 = load ptr, ptr %3, align 8
  %6 = getelementptr inbounds nuw %"class.nlsat::ineq_atom", ptr %5, i32 0, i32 2
  %7 = load i32, ptr %4, align 4, !tbaa !8
  %8 = zext i32 %7 to i64
  %9 = getelementptr inbounds nuw [0 x ptr], ptr %6, i64 0, i64 %8
  %10 = load ptr, ptr %9, align 8, !tbaa !146
  %11 = ptrtoint ptr %10 to i64
  %12 = and i64 %11, -8
  %13 = inttoptr i64 %12 to ptr
  ret ptr %13
}

; Function Attrs: mustprogress nounwind uwtable
define linkonce_odr hidden noundef i32 @_ZNK5nlsat9ineq_atom4sizeEv(ptr noundef nonnull align 8 dereferenceable(24) %0) #4 comdat align 2 {
  %2 = alloca ptr, align 8
  store ptr %0, ptr %2, align 8, !tbaa !142
  %3 = load ptr, ptr %2, align 8
  %4 = getelementptr inbounds nuw %"class.nlsat::ineq_atom", ptr %3, i32 0, i32 1
  %5 = load i32, ptr %4, align 8, !tbaa !144
  ret i32 %5
}

; Function Attrs: inlinehint mustprogress nounwind uwtable
define linkonce_odr hidden noundef ptr @_ZN5nlsat12to_ineq_atomEPNS_4atomE(ptr noundef %0) #8 comdat {
  %2 = alloca ptr, align 8
  store ptr %0, ptr %2, align 8, !tbaa !131
  %3 = load ptr, ptr %2, align 8, !tbaa !131
  ret ptr %3
}

; Function Attrs: mustprogress nounwind uwtable
define linkonce_odr hidden noundef zeroext i1 @_ZNK5nlsat4atom12is_ineq_atomEv(ptr noundef nonnull align 4 dereferenceable(16) %0) #4 comdat align 2 {
  %2 = alloca ptr, align 8
  store ptr %0, ptr %2, align 8, !tbaa !131
  %3 = load ptr, ptr %2, align 8
  %4 = getelementptr inbounds nuw %"class.nlsat::atom", ptr %3, i32 0, i32 0
  %5 = load i32, ptr %4, align 4, !tbaa !139
  %6 = icmp sle i32 %5, 2
  ret i1 %6
}

; Function Attrs: mustprogress nounwind uwtable
define linkonce_odr hidden noundef nonnull align 8 dereferenceable(8) ptr @_ZNK6vectorIPN5nlsat4atomELb0EjEixEj(ptr noundef nonnull align 8 dereferenceable(8) %0, i32 noundef %1) #4 comdat align 2 {
  %3 = alloca ptr, align 8
  %4 = alloca i32, align 4
  store ptr %0, ptr %3, align 8, !tbaa !134
  store i32 %1, ptr %4, align 4, !tbaa !8
  %5 = load ptr, ptr %3, align 8
  %6 = getelementptr inbounds nuw %class.vector.2, ptr %5, i32 0, i32 0
  %7 = load ptr, ptr %6, align 8, !tbaa !136
  %8 = load i32, ptr %4, align 4, !tbaa !8
  %9 = zext i32 %8 to i64
  %10 = getelementptr inbounds nuw ptr, ptr %7, i64 %9
  ret ptr %10
}

; Function Attrs: mustprogress nounwind uwtable
define linkonce_odr hidden noundef i32 @_ZNK3sat7literal3varEv(ptr noundef nonnull align 4 dereferenceable(4) %0) #4 comdat align 2 {
  %2 = alloca ptr, align 8
  store ptr %0, ptr %2, align 8, !tbaa !3
  %3 = load ptr, ptr %2, align 8
  %4 = getelementptr inbounds nuw %"class.sat::literal", ptr %3, i32 0, i32 0
  %5 = load i32, ptr %4, align 4, !tbaa !14
  %6 = lshr i32 %5, 1
  ret i32 %6
}

; Function Attrs: mustprogress uwtable
define linkonce_odr hidden void @_ZN5nlsat22vos_var_info_collector3imp7collectEN3sat7literalE(ptr noundef nonnull align 8 dereferenceable(96) %0, i32 %1) #6 comdat align 2 {
  %3 = alloca %"class.sat::literal", align 4
  %4 = alloca ptr, align 8
  %5 = alloca i32, align 4
  %6 = alloca ptr, align 8
  %7 = alloca i32, align 4
  %8 = alloca i32, align 4
  %9 = alloca i32, align 4
  %10 = getelementptr inbounds nuw %"class.sat::literal", ptr %3, i32 0, i32 0
  store i32 %1, ptr %10, align 4
  store ptr %0, ptr %4, align 8, !tbaa !25
  %11 = load ptr, ptr %4, align 8
  call void @llvm.lifetime.start.p0(i64 4, ptr %5) #3
  %12 = call noundef i32 @_ZNK3sat7literal3varEv(ptr noundef nonnull align 4 dereferenceable(4) %3)
  store i32 %12, ptr %5, align 4, !tbaa !8
  call void @llvm.lifetime.start.p0(i64 8, ptr %6) #3
  %13 = getelementptr inbounds nuw %"struct.nlsat::vos_var_info_collector::imp", ptr %11, i32 0, i32 1
  %14 = load ptr, ptr %13, align 8, !tbaa !130
  %15 = load i32, ptr %5, align 4, !tbaa !8
  %16 = call noundef nonnull align 8 dereferenceable(8) ptr @_ZNK6vectorIPN5nlsat4atomELb0EjEixEj(ptr noundef nonnull align 8 dereferenceable(8) %14, i32 noundef %15)
  %17 = load ptr, ptr %16, align 8, !tbaa !131
  store ptr %17, ptr %6, align 8, !tbaa !131
  %18 = load ptr, ptr %6, align 8, !tbaa !131
  %19 = icmp eq ptr %18, null
  br i1 %19, label %20, label %21

20:                                               ; preds = %2
  store i32 1, ptr %7, align 4
  br label %47

21:                                               ; preds = %2
  %22 = load ptr, ptr %6, align 8, !tbaa !131
  %23 = call noundef zeroext i1 @_ZNK5nlsat4atom12is_ineq_atomEv(ptr noundef nonnull align 4 dereferenceable(16) %22)
  br i1 %23, label %24, label %42

24:                                               ; preds = %21
  call void @llvm.lifetime.start.p0(i64 4, ptr %8) #3
  %25 = load ptr, ptr %6, align 8, !tbaa !131
  %26 = call noundef ptr @_ZN5nlsat12to_ineq_atomEPNS_4atomE(ptr noundef %25)
  %27 = call noundef i32 @_ZNK5nlsat9ineq_atom4sizeEv(ptr noundef nonnull align 8 dereferenceable(24) %26)
  store i32 %27, ptr %8, align 4, !tbaa !8
  call void @llvm.lifetime.start.p0(i64 4, ptr %9) #3
  store i32 0, ptr %9, align 4, !tbaa !8
  br label %28

28:                                               ; preds = %38, %24
  %29 = load i32, ptr %9, align 4, !tbaa !8
  %30 = load i32, ptr %8, align 4, !tbaa !8
  %31 = icmp ult i32 %29, %30
  br i1 %31, label %33, label %32

32:                                               ; preds = %28
  store i32 2, ptr %7, align 4
  call void @llvm.lifetime.end.p0(i64 4, ptr %9) #3
  br label %41

33:                                               ; preds = %28
  %34 = load ptr, ptr %6, align 8, !tbaa !131
  %35 = call noundef ptr @_ZN5nlsat12to_ineq_atomEPNS_4atomE(ptr noundef %34)
  %36 = load i32, ptr %9, align 4, !tbaa !8
  %37 = call noundef ptr @_ZNK5nlsat9ineq_atom1pEj(ptr noundef nonnull align 8 dereferenceable(24) %35, i32 noundef %36)
  call void @_ZN5nlsat22vos_var_info_collector3imp7collectEPN10polynomial10polynomialE(ptr noundef nonnull align 8 dereferenceable(96) %11, ptr noundef %37)
  br label %38

38:                                               ; preds = %33
  %39 = load i32, ptr %9, align 4, !tbaa !8
  %40 = add i32 %39, 1
  store i32 %40, ptr %9, align 4, !tbaa !8
  br label %28, !llvm.loop !133

41:                                               ; preds = %32
  call void @llvm.lifetime.end.p0(i64 4, ptr %8) #3
  br label %46

42:                                               ; preds = %21
  %43 = load ptr, ptr %6, align 8, !tbaa !131
  %44 = call noundef ptr @_ZN5nlsat12to_root_atomEPNS_4atomE(ptr noundef %43)
  %45 = call noundef ptr @_ZNK5nlsat9root_atom1pEv(ptr noundef nonnull align 8 dereferenceable(32) %44)
  call void @_ZN5nlsat22vos_var_info_collector3imp7collectEPN10polynomial10polynomialE(ptr noundef nonnull align 8 dereferenceable(96) %11, ptr noundef %45)
  br label %46

46:                                               ; preds = %42, %41
  store i32 0, ptr %7, align 4
  br label %47

47:                                               ; preds = %46, %20
  call void @llvm.lifetime.end.p0(i64 8, ptr %6) #3
  call void @llvm.lifetime.end.p0(i64 4, ptr %5) #3
  %48 = load i32, ptr %7, align 4
  switch i32 %48, label %50 [
    i32 0, label %49
    i32 1, label %49
  ]

49:                                               ; preds = %47, %47
  ret void

50:                                               ; preds = %47
  unreachable
}

; Function Attrs: mustprogress nounwind uwtable
define linkonce_odr hidden noundef nonnull align 4 dereferenceable(4) ptr @_ZNK5nlsat6clauseixEj(ptr noundef nonnull align 8 dereferenceable(32) %0, i32 noundef %1) #4 comdat align 2 {
  %3 = alloca ptr, align 8
  %4 = alloca i32, align 4
  store ptr %0, ptr %3, align 8, !tbaa !38
  store i32 %1, ptr %4, align 4, !tbaa !8
  %5 = load ptr, ptr %3, align 8
  %6 = getelementptr inbounds nuw %"class.nlsat::clause", ptr %5, i32 0, i32 5
  %7 = load i32, ptr %4, align 4, !tbaa !8
  %8 = zext i32 %7 to i64
  %9 = getelementptr inbounds nuw [0 x %"class.sat::literal"], ptr %6, i64 0, i64 %8
  ret ptr %9
}

; Function Attrs: mustprogress nounwind uwtable
define linkonce_odr hidden noundef i32 @_ZNK5nlsat6clause4sizeEv(ptr noundef nonnull align 8 dereferenceable(32) %0) #4 comdat align 2 {
  %2 = alloca ptr, align 8
  store ptr %0, ptr %2, align 8, !tbaa !38
  %3 = load ptr, ptr %2, align 8
  %4 = getelementptr inbounds nuw %"class.nlsat::clause", ptr %3, i32 0, i32 1
  %5 = load i32, ptr %4, align 4, !tbaa !128
  ret i32 %5
}

; Function Attrs: mustprogress uwtable
define linkonce_odr hidden void @_ZN5nlsat22vos_var_info_collector3imp7collectERKNS_6clauseE(ptr noundef nonnull align 8 dereferenceable(96) %0, ptr noundef nonnull align 8 dereferenceable(32) %1) #6 comdat align 2 {
  %3 = alloca ptr, align 8
  %4 = alloca ptr, align 8
  %5 = alloca i32, align 4
  %6 = alloca i32, align 4
  %7 = alloca %"class.sat::literal", align 4
  store ptr %0, ptr %3, align 8, !tbaa !25
  store ptr %1, ptr %4, align 8, !tbaa !38
  %8 = load ptr, ptr %3, align 8
  call void @llvm.lifetime.start.p0(i64 4, ptr %5) #3
  %9 = load ptr, ptr %4, align 8, !tbaa !38
  %10 = call noundef i32 @_ZNK5nlsat6clause4sizeEv(ptr noundef nonnull align 8 dereferenceable(32) %9)
  store i32 %10, ptr %5, align 4, !tbaa !8
  call void @llvm.lifetime.start.p0(i64 4, ptr %6) #3
  store i32 0, ptr %6, align 4, !tbaa !8
  br label %11

11:                                               ; preds = %22, %2
  %12 = load i32, ptr %6, align 4, !tbaa !8
  %13 = load i32, ptr %5, align 4, !tbaa !8
  %14 = icmp ult i32 %12, %13
  br i1 %14, label %16, label %15

15:                                               ; preds = %11
  call void @llvm.lifetime.end.p0(i64 4, ptr %6) #3
  br label %25

16:                                               ; preds = %11
  %17 = load ptr, ptr %4, align 8, !tbaa !38
  %18 = load i32, ptr %6, align 4, !tbaa !8
  %19 = call noundef nonnull align 4 dereferenceable(4) ptr @_ZNK5nlsat6clauseixEj(ptr noundef nonnull align 8 dereferenceable(32) %17, i32 noundef %18)
  call void @llvm.memcpy.p0.p0.i64(ptr align 4 %7, ptr align 4 %19, i64 4, i1 false), !tbaa.struct !126
  %20 = getelementptr inbounds nuw %"class.sat::literal", ptr %7, i32 0, i32 0
  %21 = load i32, ptr %20, align 4
  call void @_ZN5nlsat22vos_var_info_collector3imp7collectEN3sat7literalE(ptr noundef nonnull align 8 dereferenceable(96) %8, i32 %21)
  br label %22

22:                                               ; preds = %16
  %23 = load i32, ptr %6, align 4, !tbaa !8
  %24 = add i32 %23, 1
  store i32 %24, ptr %6, align 4, !tbaa !8
  br label %11, !llvm.loop !127

25:                                               ; preds = %15
  call void @llvm.lifetime.end.p0(i64 4, ptr %5) #3
  ret void
}

; Function Attrs: mustprogress nounwind uwtable
define linkonce_odr hidden noundef nonnull align 8 dereferenceable(8) ptr @_ZNK6vectorIPN5nlsat6clauseELb0EjEixEj(ptr noundef nonnull align 8 dereferenceable(8) %0, i32 noundef %1) #4 comdat align 2 {
  %3 = alloca ptr, align 8
  %4 = alloca i32, align 4
  store ptr %0, ptr %3, align 8, !tbaa !121
  store i32 %1, ptr %4, align 4, !tbaa !8
  %5 = load ptr, ptr %3, align 8
  %6 = getelementptr inbounds nuw %class.vector.4, ptr %5, i32 0, i32 0
  %7 = load ptr, ptr %6, align 8, !tbaa !123
  %8 = load i32, ptr %4, align 4, !tbaa !8
  %9 = zext i32 %8 to i64
  %10 = getelementptr inbounds nuw ptr, ptr %7, i64 %9
  ret ptr %10
}

; Function Attrs: mustprogress nounwind uwtable
define linkonce_odr hidden noundef i32 @_ZNK6vectorIPN5nlsat6clauseELb0EjE4sizeEv(ptr noundef nonnull align 8 dereferenceable(8) %0) #4 comdat align 2 {
  %2 = alloca i32, align 4
  %3 = alloca ptr, align 8
  store ptr %0, ptr %3, align 8, !tbaa !121
  %4 = load ptr, ptr %3, align 8
  %5 = getelementptr inbounds nuw %class.vector.4, ptr %4, i32 0, i32 0
  %6 = load ptr, ptr %5, align 8, !tbaa !123
  %7 = icmp eq ptr %6, null
  br i1 %7, label %8, label %9

8:                                                ; preds = %1
  store i32 0, ptr %2, align 4
  br label %14

9:                                                ; preds = %1
  %10 = getelementptr inbounds nuw %class.vector.4, ptr %4, i32 0, i32 0
  %11 = load ptr, ptr %10, align 8, !tbaa !123
  %12 = getelementptr inbounds i32, ptr %11, i64 -1
  %13 = load i32, ptr %12, align 4, !tbaa !8
  store i32 %13, ptr %2, align 4
  br label %14

14:                                               ; preds = %9, %8
  %15 = load i32, ptr %2, align 4
  ret i32 %15
}

; Function Attrs: mustprogress uwtable
define linkonce_odr hidden void @_ZN5nlsat22vos_var_info_collector3imp7collectERK10ptr_vectorINS_6clauseEE(ptr noundef nonnull align 8 dereferenceable(96) %0, ptr noundef nonnull align 8 dereferenceable(8) %1) #6 comdat align 2 {
  %3 = alloca ptr, align 8
  %4 = alloca ptr, align 8
  %5 = alloca i32, align 4
  %6 = alloca i32, align 4
  store ptr %0, ptr %3, align 8, !tbaa !25
  store ptr %1, ptr %4, align 8, !tbaa !36
  %7 = load ptr, ptr %3, align 8
  call void @llvm.lifetime.start.p0(i64 4, ptr %5) #3
  %8 = load ptr, ptr %4, align 8, !tbaa !36
  %9 = call noundef i32 @_ZNK6vectorIPN5nlsat6clauseELb0EjE4sizeEv(ptr noundef nonnull align 8 dereferenceable(8) %8)
  store i32 %9, ptr %5, align 4, !tbaa !8
  call void @llvm.lifetime.start.p0(i64 4, ptr %6) #3
  store i32 0, ptr %6, align 4, !tbaa !8
  br label %10

10:                                               ; preds = %20, %2
  %11 = load i32, ptr %6, align 4, !tbaa !8
  %12 = load i32, ptr %5, align 4, !tbaa !8
  %13 = icmp ult i32 %11, %12
  br i1 %13, label %15, label %14

14:                                               ; preds = %10
  call void @llvm.lifetime.end.p0(i64 4, ptr %6) #3
  br label %23

15:                                               ; preds = %10
  %16 = load ptr, ptr %4, align 8, !tbaa !36
  %17 = load i32, ptr %6, align 4, !tbaa !8
  %18 = call noundef nonnull align 8 dereferenceable(8) ptr @_ZNK6vectorIPN5nlsat6clauseELb0EjEixEj(ptr noundef nonnull align 8 dereferenceable(8) %16, i32 noundef %17)
  %19 = load ptr, ptr %18, align 8, !tbaa !38
  call void @_ZN5nlsat22vos_var_info_collector3imp7collectERKNS_6clauseE(ptr noundef nonnull align 8 dereferenceable(96) %7, ptr noundef nonnull align 8 dereferenceable(32) %19)
  br label %20

20:                                               ; preds = %15
  %21 = load i32, ptr %6, align 4, !tbaa !8
  %22 = add i32 %21, 1
  store i32 %22, ptr %6, align 4, !tbaa !8
  br label %10, !llvm.loop !40

23:                                               ; preds = %14
  call void @llvm.lifetime.end.p0(i64 4, ptr %5) #3
  ret void
}

; Function Attrs: mustprogress uwtable
define hidden void @_ZN5nlsat22vos_var_info_collector7collectERK10ptr_vectorINS_6clauseEE(ptr noundef nonnull align 8 dereferenceable(8) %0, ptr noundef nonnull align 8 dereferenceable(8) %1) #6 align 2 {
  %3 = alloca ptr, align 8
  %4 = alloca ptr, align 8
  store ptr %0, ptr %3, align 8, !tbaa !16
  store ptr %1, ptr %4, align 8, !tbaa !36
  %5 = load ptr, ptr %3, align 8
  %6 = getelementptr inbounds nuw %"class.nlsat::vos_var_info_collector", ptr %5, i32 0, i32 0
  %7 = load ptr, ptr %6, align 8, !tbaa !22
  %8 = load ptr, ptr %4, align 8, !tbaa !36
  call void @_ZN5nlsat22vos_var_info_collector3imp7collectERK10ptr_vectorINS_6clauseEE(ptr noundef nonnull align 8 dereferenceable(96) %7, ptr noundef nonnull align 8 dereferenceable(8) %8)
  ret void
}