; Function Attrs: mustprogress uwtable
define hidden void @_ZN5nlsat22vos_var_info_collector7collectERK10ptr_vectorINS_6clauseEE(ptr noundef nonnull readonly align 8 captures(none) dereferenceable(8) %0, ptr noundef nonnull readonly align 8 captures(none) dereferenceable(8) %1) local_unnamed_addr #4 align 2 {
  %3 = load ptr, ptr %0, align 8, !tbaa !3
  %4 = load ptr, ptr %1, align 8, !tbaa !35
  %5 = icmp eq ptr %4, null
  br i1 %5, label %_ZN5nlsat22vos_var_info_collector3imp7collectERK10ptr_vectorINS_6clauseEE.exit, label %_ZNK6vectorIPN5nlsat6clauseELb0EjE4sizeEv.exit.i

_ZNK6vectorIPN5nlsat6clauseELb0EjE4sizeEv.exit.i: ; preds = %2
  %6 = getelementptr inbounds i8, ptr %4, i64 -4
  %7 = load i32, ptr %6, align 4, !tbaa !25
  %.not.i = icmp eq i32 %7, 0
  br i1 %.not.i, label %_ZN5nlsat22vos_var_info_collector3imp7collectERK10ptr_vectorINS_6clauseEE.exit, label %.lr.ph.i

.lr.ph.i:                                         ; preds = %_ZNK6vectorIPN5nlsat6clauseELb0EjE4sizeEv.exit.i
  %8 = getelementptr inbounds nuw i8, ptr %3, i64 8
  %wide.trip.count.i = zext i32 %7 to i64
  br label %9

9:                                                ; preds = %_ZN5nlsat22vos_var_info_collector3imp7collectERKNS_6clauseE.exit.i, %.lr.ph.i
  %indvars.iv.i = phi i64 [ 0, %.lr.ph.i ], [ %indvars.iv.next.i, %_ZN5nlsat22vos_var_info_collector3imp7collectERKNS_6clauseE.exit.i ]
  %10 = load ptr, ptr %1, align 8, !tbaa !35
  %11 = getelementptr inbounds nuw ptr, ptr %10, i64 %indvars.iv.i
  %12 = load ptr, ptr %11, align 8, !tbaa !39
  %13 = getelementptr inbounds nuw i8, ptr %12, i64 4
  %14 = load i32, ptr %13, align 4, !tbaa !41
  %.not.i.i = icmp eq i32 %14, 0
  br i1 %.not.i.i, label %_ZN5nlsat22vos_var_info_collector3imp7collectERKNS_6clauseE.exit.i, label %.lr.ph.i.i

.lr.ph.i.i:                                       ; preds = %9
  %15 = getelementptr inbounds nuw i8, ptr %12, i64 32
  %wide.trip.count.i.i = zext i32 %14 to i64
  br label %16

16:                                               ; preds = %_ZN5nlsat22vos_var_info_collector3imp7collectEN3sat7literalE.exit.i.i, %.lr.ph.i.i
  %indvars.iv.i.i = phi i64 [ 0, %.lr.ph.i.i ], [ %indvars.iv.next.i.i, %_ZN5nlsat22vos_var_info_collector3imp7collectEN3sat7literalE.exit.i.i ]
  %17 = getelementptr inbounds nuw [0 x %"class.sat::literal"], ptr %15, i64 0, i64 %indvars.iv.i.i
  %.sroa.0.0.copyload.i.i = load i32, ptr %17, align 4, !tbaa !25
  %18 = lshr i32 %.sroa.0.0.copyload.i.i, 1
  %19 = load ptr, ptr %8, align 8, !tbaa !43
  %20 = load ptr, ptr %19, align 8, !tbaa !44
  %21 = zext nneg i32 %18 to i64
  %22 = getelementptr inbounds nuw ptr, ptr %20, i64 %21
  %23 = load ptr, ptr %22, align 8, !tbaa !47
  %24 = icmp eq ptr %23, null
  br i1 %24, label %_ZN5nlsat22vos_var_info_collector3imp7collectEN3sat7literalE.exit.i.i, label %25

25:                                               ; preds = %16
  %26 = load i32, ptr %23, align 4, !tbaa !49
  %27 = icmp slt i32 %26, 3
  br i1 %27, label %28, label %38

28:                                               ; preds = %25
  %29 = getelementptr inbounds nuw i8, ptr %23, i64 16
  %30 = load i32, ptr %29, align 8, !tbaa !52
  %.not.i.i.i = icmp eq i32 %30, 0
  br i1 %.not.i.i.i, label %_ZN5nlsat22vos_var_info_collector3imp7collectEN3sat7literalE.exit.i.i, label %.lr.ph.i.i.i

.lr.ph.i.i.i:                                     ; preds = %28
  %31 = getelementptr inbounds nuw i8, ptr %23, i64 24
  %wide.trip.count.i.i.i = zext i32 %30 to i64
  br label %32

32:                                               ; preds = %32, %.lr.ph.i.i.i
  %indvars.iv.i.i.i = phi i64 [ 0, %.lr.ph.i.i.i ], [ %indvars.iv.next.i.i.i, %32 ]
  %33 = getelementptr inbounds nuw [0 x ptr], ptr %31, i64 0, i64 %indvars.iv.i.i.i
  %34 = load ptr, ptr %33, align 8, !tbaa !54
  %35 = ptrtoint ptr %34 to i64
  %36 = and i64 %35, -8
  %37 = inttoptr i64 %36 to ptr
  tail call void @_ZN5nlsat22vos_var_info_collector3imp7collectEPN10polynomial10polynomialE(ptr noundef nonnull align 8 dereferenceable(96) %3, ptr noundef %37)
  %indvars.iv.next.i.i.i = add nuw nsw i64 %indvars.iv.i.i.i, 1
  %exitcond.not.i.i.i = icmp eq i64 %indvars.iv.next.i.i.i, %wide.trip.count.i.i.i
  br i1 %exitcond.not.i.i.i, label %_ZN5nlsat22vos_var_info_collector3imp7collectEN3sat7literalE.exit.i.i, label %32, !llvm.loop !56

38:                                               ; preds = %25
  %39 = getelementptr inbounds nuw i8, ptr %23, i64 24
  %40 = load ptr, ptr %39, align 8, !tbaa !57
  tail call void @_ZN5nlsat22vos_var_info_collector3imp7collectEPN10polynomial10polynomialE(ptr noundef nonnull align 8 dereferenceable(96) %3, ptr noundef %40)
  br label %_ZN5nlsat22vos_var_info_collector3imp7collectEN3sat7literalE.exit.i.i

_ZN5nlsat22vos_var_info_collector3imp7collectEN3sat7literalE.exit.i.i: ; preds = %32, %38, %28, %16
  %indvars.iv.next.i.i = add nuw nsw i64 %indvars.iv.i.i, 1
  %exitcond.not.i.i = icmp eq i64 %indvars.iv.next.i.i, %wide.trip.count.i.i
  br i1 %exitcond.not.i.i, label %_ZN5nlsat22vos_var_info_collector3imp7collectERKNS_6clauseE.exit.i, label %16, !llvm.loop !59

_ZN5nlsat22vos_var_info_collector3imp7collectERKNS_6clauseE.exit.i: ; preds = %_ZN5nlsat22vos_var_info_collector3imp7collectEN3sat7literalE.exit.i.i, %9
  %indvars.iv.next.i = add nuw nsw i64 %indvars.iv.i, 1
  %exitcond.not.i = icmp eq i64 %indvars.iv.next.i, %wide.trip.count.i
  br i1 %exitcond.not.i, label %_ZN5nlsat22vos_var_info_collector3imp7collectERK10ptr_vectorINS_6clauseEE.exit, label %9, !llvm.loop !60

_ZN5nlsat22vos_var_info_collector3imp7collectERK10ptr_vectorINS_6clauseEE.exit: ; preds = %_ZN5nlsat22vos_var_info_collector3imp7collectERKNS_6clauseE.exit.i, %2, %_ZNK6vectorIPN5nlsat6clauseELb0EjE4sizeEv.exit.i
  ret void
}